target datalayout = "e-m:e-p270:32:32-p271:32:32-p272:64:64-i64:64-i128:128-f80:128-n8:16:32:64-S128"
target triple = "x86_64-pc-linux-gnu"

%struct._generic_SUNLinearSolver = type { ptr, ptr, ptr }
%struct._SUNLinearSolverContent_SPBCGS = type { i32, i32, i32, i32, double, i32, ptr, ptr, ptr, ptr, ptr, ptr, ptr, ptr, ptr, ptr, ptr, ptr, ptr, ptr }
%struct._generic_N_Vector = type { ptr, ptr, ptr }
%struct._generic_N_Vector_Ops = type { ptr, ptr, ptr, ptr, ptr, ptr, ptr, ptr, ptr, ptr, ptr, ptr, ptr, ptr, ptr, ptr, ptr, ptr, ptr, ptr, ptr, ptr, ptr, ptr, ptr, ptr, ptr, ptr, ptr, ptr, ptr, ptr, ptr, ptr, ptr, ptr, ptr, ptr, ptr, ptr, ptr, ptr, ptr, ptr, ptr, ptr, ptr, ptr, ptr, ptr, ptr, ptr, ptr, ptr, ptr, ptr }

; Function Attrs: nounwind uwtable
define i32 @SUNLinSolSpace_SPBCGS(ptr noundef %0, ptr noundef %1, ptr noundef %2) #0 {
  %4 = alloca ptr, align 8
  %5 = alloca ptr, align 8
  %6 = alloca ptr, align 8
  %7 = alloca ptr, align 8
  %8 = alloca i64, align 8
  %9 = alloca i64, align 8
  store ptr %0, ptr %4, align 8, !tbaa !12
  store ptr %1, ptr %5, align 8, !tbaa !67
  store ptr %2, ptr %6, align 8, !tbaa !67
  call void @llvm.lifetime.start.p0(i64 8, ptr %7) #5
  %10 = load ptr, ptr %4, align 8, !tbaa !12
  %11 = getelementptr inbounds nuw %struct._generic_SUNLinearSolver, ptr %10, i32 0, i32 2
  %12 = load ptr, ptr %11, align 8, !tbaa !59
  store ptr %12, ptr %7, align 8, !tbaa !10
  call void @llvm.lifetime.start.p0(i64 8, ptr %8) #5
  call void @llvm.lifetime.start.p0(i64 8, ptr %9) #5
  %13 = load ptr, ptr %4, align 8, !tbaa !12
  %14 = getelementptr inbounds nuw %struct._generic_SUNLinearSolver, ptr %13, i32 0, i32 0
  %15 = load ptr, ptr %14, align 8, !tbaa !35
  %16 = getelementptr inbounds nuw %struct._SUNLinearSolverContent_SPBCGS, ptr %15, i32 0, i32 19
  %17 = load ptr, ptr %16, align 8, !tbaa !50
  %18 = getelementptr inbounds nuw %struct._generic_N_Vector, ptr %17, i32 0, i32 1
  %19 = load ptr, ptr %18, align 8, !tbaa !69
  %20 = getelementptr inbounds nuw %struct._generic_N_Vector_Ops, ptr %19, i32 0, i32 4
  %21 = load ptr, ptr %20, align 8, !tbaa !72
  %22 = icmp ne ptr %21, null
  br i1 %22, label %23, label %29

23:                                               ; preds = %3
  %24 = load ptr, ptr %4, align 8, !tbaa !12
  %25 = getelementptr inbounds nuw %struct._generic_SUNLinearSolver, ptr %24, i32 0, i32 0
  %26 = load ptr, ptr %25, align 8, !tbaa !35
  %27 = getelementptr inbounds nuw %struct._SUNLinearSolverContent_SPBCGS, ptr %26, i32 0, i32 19
  %28 = load ptr, ptr %27, align 8, !tbaa !50
  call void @N_VSpace(ptr noundef %28, ptr noundef %9, ptr noundef %8)
  br label %30

29:                                               ; preds = %3
  store i64 0, ptr %8, align 8, !tbaa !74
  store i64 0, ptr %9, align 8, !tbaa !74
  br label %30

30:                                               ; preds = %29, %23
  %31 = load i64, ptr %9, align 8, !tbaa !74
  %32 = mul nsw i64 %31, 9
  %33 = load ptr, ptr %5, align 8, !tbaa !67
  store i64 %32, ptr %33, align 8, !tbaa !74
  %34 = load i64, ptr %8, align 8, !tbaa !74
  %35 = mul nsw i64 %34, 9
  %36 = load ptr, ptr %6, align 8, !tbaa !67
  store i64 %35, ptr %36, align 8, !tbaa !74
  call void @llvm.lifetime.end.p0(i64 8, ptr %9) #5
  call void @llvm.lifetime.end.p0(i64 8, ptr %8) #5
  call void @llvm.lifetime.end.p0(i64 8, ptr %7) #5
  ret i32 0
}