; Function Attrs: nounwind uwtable
define noundef i32 @SUNLinSolSpace_SPBCGS(ptr noundef readonly captures(none) %0, ptr noundef writeonly captures(none) initializes((0, 8)) %1, ptr noundef writeonly captures(none) initializes((0, 8)) %2) #0 {
  %4 = alloca i64, align 8
  %5 = alloca i64, align 8
  call void @llvm.lifetime.start.p0(i64 8, ptr nonnull %4) #11
  call void @llvm.lifetime.start.p0(i64 8, ptr nonnull %5) #11
  %6 = load ptr, ptr %0, align 8, !tbaa !26
  %7 = getelementptr inbounds nuw i8, ptr %6, i64 136
  %8 = load ptr, ptr %7, align 8, !tbaa !40
  %9 = getelementptr inbounds nuw i8, ptr %8, i64 8
  %10 = load ptr, ptr %9, align 8, !tbaa !54
  %11 = getelementptr inbounds nuw i8, ptr %10, i64 32
  %12 = load ptr, ptr %11, align 8, !tbaa !57
  %.not = icmp eq ptr %12, null
  br i1 %.not, label %16, label %13

13:                                               ; preds = %3
  call void @N_VSpace(ptr noundef nonnull %8, ptr noundef nonnull %5, ptr noundef nonnull %4) #11
  %.pre = load i64, ptr %5, align 8, !tbaa !59
  %.pre5 = load i64, ptr %4, align 8, !tbaa !59
  %14 = mul nsw i64 %.pre, 9
  %15 = mul nsw i64 %.pre5, 9
  br label %16

16:                                               ; preds = %3, %13
  %17 = phi i64 [ %15, %13 ], [ 0, %3 ]
  %18 = phi i64 [ %14, %13 ], [ 0, %3 ]
  store i64 %18, ptr %1, align 8, !tbaa !59
  store i64 %17, ptr %2, align 8, !tbaa !59
  call void @llvm.lifetime.end.p0(i64 8, ptr nonnull %5) #11
  call void @llvm.lifetime.end.p0(i64 8, ptr nonnull %4) #11
  ret i32 0
}